target datalayout = "e-m:e-p270:32:32-p271:32:32-p272:64:64-i64:64-i128:128-f80:128-n8:16:32:64-S128"
target triple = "x86_64-pc-linux-gnu"

%"class.o3dgc::Arithmetic_Codec" = type <{ ptr, ptr, ptr, i32, i32, i32, i32, i32, [4 x i8] }>

; Function Attrs: inlinehint mustprogress nounwind uwtable
define linkonce_odr hidden void @_ZN5o3dgc16Arithmetic_Codec19renorm_dec_intervalEv(ptr noundef nonnull align 8 dereferenceable(44) %0) #2 comdat align 2 {
  %2 = alloca ptr, align 8
  store ptr %0, ptr %2, align 8
  %3 = load ptr, ptr %2, align 8
  br label %4

4:                                                ; preds = %15, %1
  %5 = getelementptr inbounds nuw %"class.o3dgc::Arithmetic_Codec", ptr %3, i32 0, i32 4
  %6 = load i32, ptr %5, align 4
  %7 = shl i32 %6, 8
  %8 = getelementptr inbounds nuw %"class.o3dgc::Arithmetic_Codec", ptr %3, i32 0, i32 2
  %9 = load ptr, ptr %8, align 8
  %10 = getelementptr inbounds nuw i8, ptr %9, i32 1
  store ptr %10, ptr %8, align 8
  %11 = load i8, ptr %10, align 1
  %12 = zext i8 %11 to i32
  %13 = or i32 %7, %12
  %14 = getelementptr inbounds nuw %"class.o3dgc::Arithmetic_Codec", ptr %3, i32 0, i32 4
  store i32 %13, ptr %14, align 4
  br label %15

15:                                               ; preds = %4
  %16 = getelementptr inbounds nuw %"class.o3dgc::Arithmetic_Codec", ptr %3, i32 0, i32 5
  %17 = load i32, ptr %16, align 8
  %18 = shl i32 %17, 8
  store i32 %18, ptr %16, align 8
  %19 = icmp ult i32 %18, 16777216
  br i1 %19, label %4, label %20, !llvm.loop !6

20:                                               ; preds = %15
  ret void
}

; Function Attrs: mustprogress uwtable
define hidden noundef i32 @_ZN5o3dgc16Arithmetic_Codec8get_bitsEj(ptr noundef nonnull align 8 dereferenceable(44) %0, i32 noundef %1) #0 align 2 {
  %3 = alloca ptr, align 8
  %4 = alloca i32, align 4
  %5 = alloca i32, align 4
  store ptr %0, ptr %3, align 8
  store i32 %1, ptr %4, align 4
  %6 = load ptr, ptr %3, align 8
  call void @llvm.lifetime.start.p0(i64 4, ptr %5) #12
  %7 = getelementptr inbounds nuw %"class.o3dgc::Arithmetic_Codec", ptr %6, i32 0, i32 4
  %8 = load i32, ptr %7, align 4
  %9 = load i32, ptr %4, align 4
  %10 = getelementptr inbounds nuw %"class.o3dgc::Arithmetic_Codec", ptr %6, i32 0, i32 5
  %11 = load i32, ptr %10, align 8
  %12 = lshr i32 %11, %9
  store i32 %12, ptr %10, align 8
  %13 = udiv i32 %8, %12
  store i32 %13, ptr %5, align 4
  %14 = getelementptr inbounds nuw %"class.o3dgc::Arithmetic_Codec", ptr %6, i32 0, i32 5
  %15 = load i32, ptr %14, align 8
  %16 = load i32, ptr %5, align 4
  %17 = mul i32 %15, %16
  %18 = getelementptr inbounds nuw %"class.o3dgc::Arithmetic_Codec", ptr %6, i32 0, i32 4
  %19 = load i32, ptr %18, align 4
  %20 = sub i32 %19, %17
  store i32 %20, ptr %18, align 4
  %21 = getelementptr inbounds nuw %"class.o3dgc::Arithmetic_Codec", ptr %6, i32 0, i32 5
  %22 = load i32, ptr %21, align 8
  %23 = icmp ult i32 %22, 16777216
  br i1 %23, label %24, label %25

24:                                               ; preds = %2
  call void @_ZN5o3dgc16Arithmetic_Codec19renorm_dec_intervalEv(ptr noundef nonnull align 8 dereferenceable(44) %6)
  br label %25

25:                                               ; preds = %24, %2
  %26 = load i32, ptr %5, align 4
  call void @llvm.lifetime.end.p0(i64 4, ptr %5) #12
  ret i32 %26
}