; Function Attrs: mustprogress nofree norecurse nosync nounwind memory(read, argmem: readwrite, inaccessiblemem: none) uwtable
define hidden noundef i32 @_ZN5o3dgc16Arithmetic_Codec8get_bitsEj(ptr noundef nonnull align 8 captures(none) dereferenceable(44) %0, i32 noundef %1) local_unnamed_addr #1 align 2 {
  %3 = getelementptr inbounds nuw i8, ptr %0, i64 28
  %4 = load i32, ptr %3, align 4
  %5 = getelementptr inbounds nuw i8, ptr %0, i64 32
  %6 = load i32, ptr %5, align 8
  %7 = lshr i32 %6, %1
  store i32 %7, ptr %5, align 8
  %8 = udiv i32 %4, %7
  %9 = mul i32 %8, %7
  %.recomposed = urem i32 %4, %7
  store i32 %.recomposed, ptr %3, align 4
  %10 = icmp ult i32 %7, 16777216
  br i1 %10, label %11, label %_ZN5o3dgc16Arithmetic_Codec19renorm_dec_intervalEv.exit

11:                                               ; preds = %2
  %12 = getelementptr inbounds nuw i8, ptr %0, i64 16
  %.promoted1.i = load ptr, ptr %12, align 8
  br label %13

13:                                               ; preds = %13, %11
  %14 = phi i32 [ %22, %13 ], [ %7, %11 ]
  %15 = phi ptr [ %18, %13 ], [ %.promoted1.i, %11 ]
  %16 = phi i32 [ %21, %13 ], [ %.recomposed, %11 ]
  %17 = shl i32 %16, 8
  %18 = getelementptr inbounds nuw i8, ptr %15, i64 1
  store ptr %18, ptr %12, align 8
  %19 = load i8, ptr %18, align 1
  %20 = zext i8 %19 to i32
  %21 = or disjoint i32 %17, %20
  store i32 %21, ptr %3, align 4
  %22 = shl nuw i32 %14, 8
  store i32 %22, ptr %5, align 8
  %23 = icmp ult i32 %14, 65536
  br i1 %23, label %13, label %_ZN5o3dgc16Arithmetic_Codec19renorm_dec_intervalEv.exit, !llvm.loop !6

_ZN5o3dgc16Arithmetic_Codec19renorm_dec_intervalEv.exit: ; preds = %13, %2
  ret i32 %8
}